target datalayout = "e-m:e-p270:32:32-p271:32:32-p272:64:64-i64:64-i128:128-f80:128-n8:16:32:64-S128"
target triple = "x86_64-pc-linux-gnu"

%struct.cli_htu32_element = type { i32, %union.anon }
%union.anon = type { i64 }
%struct.cli_matcher = type { i32, ptr, ptr, ptr, ptr, i32, i32, i32, i32, i32, %struct.cli_hash_patt, %struct.cli_hash_wild, i32, i32, i32, i32, i32, ptr, ptr, ptr, ptr, ptr, ptr, i32, i32, i8, i8, ptr, i16, i8, i32, ptr, i32, i32, i32, ptr, ptr, i32, ptr, i64, i64, ptr }
%struct.cli_hash_patt = type { [3 x %struct.cli_htu32] }
%struct.cli_htu32 = type { ptr, i64, i64, i64 }
%struct.cli_hash_wild = type { [3 x %struct.cli_sz_hash] }
%struct.cli_sz_hash = type { ptr, ptr, i32 }

@hashlen = constant [3 x i32] [i32 16, i32 20, i32 32], align 4
@.str.4 = private unnamed_addr constant [46 x i8] c"hm_addhash_bin: failed to allocate size hash\0A\00", align 1
@.str.5 = private unnamed_addr constant [46 x i8] c"hm_addhash_bin: failed to add item to hashtab\00", align 1
@.str.6 = private unnamed_addr constant [57 x i8] c"hm_addhash_bin: failed to grow hash array to %u entries\0A\00", align 1
@.str.7 = private unnamed_addr constant [62 x i8] c"hm_addhash_bin: failed to grow virusname array to %u entries\0A\00", align 1

; Function Attrs: nounwind uwtable
define i32 @hm_addhash_bin(ptr noundef %0, ptr noundef %1, i32 noundef %2, i32 noundef %3, ptr noundef %4) #0 {
  %6 = alloca i32, align 4
  %7 = alloca ptr, align 8
  %8 = alloca ptr, align 8
  %9 = alloca i32, align 4
  %10 = alloca i32, align 4
  %11 = alloca ptr, align 8
  %12 = alloca i32, align 4
  %13 = alloca ptr, align 8
  %14 = alloca ptr, align 8
  %15 = alloca ptr, align 8
  %16 = alloca i32, align 4
  %17 = alloca %struct.cli_htu32_element, align 8
  store ptr %0, ptr %7, align 8
  store ptr %1, ptr %8, align 8
  store i32 %2, ptr %9, align 4
  store i32 %3, ptr %10, align 4
  store ptr %4, ptr %11, align 8
  %18 = load i32, ptr %9, align 4
  %19 = zext i32 %18 to i64
  %20 = getelementptr inbounds [3 x i32], ptr @hashlen, i64 0, i64 %19
  %21 = load i32, ptr %20, align 4
  store i32 %21, ptr %12, align 4
  %22 = load i32, ptr %10, align 4
  %23 = icmp ne i32 %22, 0
  br i1 %23, label %24, label %89

24:                                               ; preds = %5
  %25 = load ptr, ptr %7, align 8
  %26 = getelementptr inbounds %struct.cli_matcher, ptr %25, i32 0, i32 10
  %27 = getelementptr inbounds %struct.cli_hash_patt, ptr %26, i32 0, i32 0
  %28 = load i32, ptr %9, align 4
  %29 = zext i32 %28 to i64
  %30 = getelementptr inbounds [3 x %struct.cli_htu32], ptr %27, i64 0, i64 %29
  store ptr %30, ptr %15, align 8
  %31 = load ptr, ptr %7, align 8
  %32 = getelementptr inbounds %struct.cli_matcher, ptr %31, i32 0, i32 10
  %33 = getelementptr inbounds %struct.cli_hash_patt, ptr %32, i32 0, i32 0
  %34 = load i32, ptr %9, align 4
  %35 = zext i32 %34 to i64
  %36 = getelementptr inbounds [3 x %struct.cli_htu32], ptr %33, i64 0, i64 %35
  %37 = getelementptr inbounds %struct.cli_htu32, ptr %36, i32 0, i32 1
  %38 = load i64, ptr %37, align 8
  %39 = icmp ne i64 %38, 0
  br i1 %39, label %51, label %40

40:                                               ; preds = %24
  %41 = load ptr, ptr %15, align 8
  %42 = load ptr, ptr %7, align 8
  %43 = getelementptr inbounds %struct.cli_matcher, ptr %42, i32 0, i32 41
  %44 = load ptr, ptr %43, align 8
  %45 = call i32 @cli_htu32_init(ptr noundef %41, i64 noundef 64, ptr noundef %44)
  store i32 %45, ptr %16, align 4
  %46 = load i32, ptr %16, align 4
  %47 = icmp ne i32 %46, 0
  br i1 %47, label %48, label %50

48:                                               ; preds = %40
  %49 = load i32, ptr %16, align 4
  store i32 %49, ptr %6, align 4
  br label %192

50:                                               ; preds = %40
  br label %51

51:                                               ; preds = %50, %24
  %52 = load ptr, ptr %15, align 8
  %53 = load i32, ptr %10, align 4
  %54 = call ptr @cli_htu32_find(ptr noundef %52, i32 noundef %53)
  store ptr %54, ptr %13, align 8
  %55 = load ptr, ptr %13, align 8
  %56 = icmp ne ptr %55, null
  br i1 %56, label %84, label %57

57:                                               ; preds = %51
  %58 = load ptr, ptr %7, align 8
  %59 = getelementptr inbounds %struct.cli_matcher, ptr %58, i32 0, i32 41
  %60 = load ptr, ptr %59, align 8
  %61 = call ptr @mpool_calloc(ptr noundef %60, i64 noundef 1, i64 noundef 24)
  store ptr %61, ptr %14, align 8
  %62 = load ptr, ptr %14, align 8
  %63 = icmp ne ptr %62, null
  br i1 %63, label %65, label %64

64:                                               ; preds = %57
  call void (ptr, ...) @cli_errmsg(ptr noundef @.str.4)
  store i32 20, ptr %6, align 4
  br label %192

65:                                               ; preds = %57
  %66 = load i32, ptr %10, align 4
  %67 = getelementptr inbounds %struct.cli_htu32_element, ptr %17, i32 0, i32 0
  store i32 %66, ptr %67, align 8
  %68 = load ptr, ptr %14, align 8
  %69 = getelementptr inbounds %struct.cli_htu32_element, ptr %17, i32 0, i32 1
  store ptr %68, ptr %69, align 8
  %70 = load ptr, ptr %15, align 8
  %71 = load ptr, ptr %7, align 8
  %72 = getelementptr inbounds %struct.cli_matcher, ptr %71, i32 0, i32 41
  %73 = load ptr, ptr %72, align 8
  %74 = call i32 @cli_htu32_insert(ptr noundef %70, ptr noundef %17, ptr noundef %73)
  store i32 %74, ptr %16, align 4
  %75 = load i32, ptr %16, align 4
  %76 = icmp ne i32 %75, 0
  br i1 %76, label %77, label %83

77:                                               ; preds = %65
  call void (ptr, ...) @cli_errmsg(ptr noundef @.str.5)
  %78 = load ptr, ptr %7, align 8
  %79 = getelementptr inbounds %struct.cli_matcher, ptr %78, i32 0, i32 41
  %80 = load ptr, ptr %79, align 8
  %81 = load ptr, ptr %14, align 8
  call void @mpool_free(ptr noundef %80, ptr noundef %81)
  %82 = load i32, ptr %16, align 4
  store i32 %82, ptr %6, align 4
  br label %192

83:                                               ; preds = %65
  br label %88

84:                                               ; preds = %51
  %85 = load ptr, ptr %13, align 8
  %86 = getelementptr inbounds %struct.cli_htu32_element, ptr %85, i32 0, i32 1
  %87 = load ptr, ptr %86, align 8
  store ptr %87, ptr %14, align 8
  br label %88

88:                                               ; preds = %84, %83
  br label %96

89:                                               ; preds = %5
  %90 = load ptr, ptr %7, align 8
  %91 = getelementptr inbounds %struct.cli_matcher, ptr %90, i32 0, i32 11
  %92 = getelementptr inbounds %struct.cli_hash_wild, ptr %91, i32 0, i32 0
  %93 = load i32, ptr %9, align 4
  %94 = zext i32 %93 to i64
  %95 = getelementptr inbounds [3 x %struct.cli_sz_hash], ptr %92, i64 0, i64 %94
  store ptr %95, ptr %14, align 8
  br label %96

96:                                               ; preds = %89, %88
  %97 = load ptr, ptr %14, align 8
  %98 = getelementptr inbounds %struct.cli_sz_hash, ptr %97, i32 0, i32 2
  %99 = load i32, ptr %98, align 8
  %100 = add i32 %99, 1
  store i32 %100, ptr %98, align 8
  %101 = load ptr, ptr %7, align 8
  %102 = getelementptr inbounds %struct.cli_matcher, ptr %101, i32 0, i32 41
  %103 = load ptr, ptr %102, align 8
  %104 = load ptr, ptr %14, align 8
  %105 = getelementptr inbounds %struct.cli_sz_hash, ptr %104, i32 0, i32 0
  %106 = load ptr, ptr %105, align 8
  %107 = load i32, ptr %12, align 4
  %108 = load ptr, ptr %14, align 8
  %109 = getelementptr inbounds %struct.cli_sz_hash, ptr %108, i32 0, i32 2
  %110 = load i32, ptr %109, align 8
  %111 = mul i32 %107, %110
  %112 = zext i32 %111 to i64
  %113 = call ptr @mpool_realloc2(ptr noundef %103, ptr noundef %106, i64 noundef %112)
  %114 = load ptr, ptr %14, align 8
  %115 = getelementptr inbounds %struct.cli_sz_hash, ptr %114, i32 0, i32 0
  store ptr %113, ptr %115, align 8
  %116 = load ptr, ptr %14, align 8
  %117 = getelementptr inbounds %struct.cli_sz_hash, ptr %116, i32 0, i32 0
  %118 = load ptr, ptr %117, align 8
  %119 = icmp ne ptr %118, null
  br i1 %119, label %134, label %120

120:                                              ; preds = %96
  %121 = load ptr, ptr %14, align 8
  %122 = getelementptr inbounds %struct.cli_sz_hash, ptr %121, i32 0, i32 2
  %123 = load i32, ptr %122, align 8
  call void (ptr, ...) @cli_errmsg(ptr noundef @.str.6, i32 noundef %123)
  %124 = load ptr, ptr %14, align 8
  %125 = getelementptr inbounds %struct.cli_sz_hash, ptr %124, i32 0, i32 2
  store i32 0, ptr %125, align 8
  %126 = load ptr, ptr %7, align 8
  %127 = getelementptr inbounds %struct.cli_matcher, ptr %126, i32 0, i32 41
  %128 = load ptr, ptr %127, align 8
  %129 = load ptr, ptr %14, align 8
  %130 = getelementptr inbounds %struct.cli_sz_hash, ptr %129, i32 0, i32 1
  %131 = load ptr, ptr %130, align 8
  call void @mpool_free(ptr noundef %128, ptr noundef %131)
  %132 = load ptr, ptr %14, align 8
  %133 = getelementptr inbounds %struct.cli_sz_hash, ptr %132, i32 0, i32 1
  store ptr null, ptr %133, align 8
  store i32 20, ptr %6, align 4
  br label %192

134:                                              ; preds = %96
  %135 = load ptr, ptr %7, align 8
  %136 = getelementptr inbounds %struct.cli_matcher, ptr %135, i32 0, i32 41
  %137 = load ptr, ptr %136, align 8
  %138 = load ptr, ptr %14, align 8
  %139 = getelementptr inbounds %struct.cli_sz_hash, ptr %138, i32 0, i32 1
  %140 = load ptr, ptr %139, align 8
  %141 = load ptr, ptr %14, align 8
  %142 = getelementptr inbounds %struct.cli_sz_hash, ptr %141, i32 0, i32 2
  %143 = load i32, ptr %142, align 8
  %144 = zext i32 %143 to i64
  %145 = mul i64 8, %144
  %146 = call ptr @mpool_realloc2(ptr noundef %137, ptr noundef %140, i64 noundef %145)
  %147 = load ptr, ptr %14, align 8
  %148 = getelementptr inbounds %struct.cli_sz_hash, ptr %147, i32 0, i32 1
  store ptr %146, ptr %148, align 8
  %149 = load ptr, ptr %14, align 8
  %150 = getelementptr inbounds %struct.cli_sz_hash, ptr %149, i32 0, i32 1
  %151 = load ptr, ptr %150, align 8
  %152 = icmp ne ptr %151, null
  br i1 %152, label %167, label %153

153:                                              ; preds = %134
  %154 = load ptr, ptr %14, align 8
  %155 = getelementptr inbounds %struct.cli_sz_hash, ptr %154, i32 0, i32 2
  %156 = load i32, ptr %155, align 8
  call void (ptr, ...) @cli_errmsg(ptr noundef @.str.7, i32 noundef %156)
  %157 = load ptr, ptr %14, align 8
  %158 = getelementptr inbounds %struct.cli_sz_hash, ptr %157, i32 0, i32 2
  store i32 0, ptr %158, align 8
  %159 = load ptr, ptr %7, align 8
  %160 = getelementptr inbounds %struct.cli_matcher, ptr %159, i32 0, i32 41
  %161 = load ptr, ptr %160, align 8
  %162 = load ptr, ptr %14, align 8
  %163 = getelementptr inbounds %struct.cli_sz_hash, ptr %162, i32 0, i32 0
  %164 = load ptr, ptr %163, align 8
  call void @mpool_free(ptr noundef %161, ptr noundef %164)
  %165 = load ptr, ptr %14, align 8
  %166 = getelementptr inbounds %struct.cli_sz_hash, ptr %165, i32 0, i32 0
  store ptr null, ptr %166, align 8
  store i32 20, ptr %6, align 4
  br label %192

167:                                              ; preds = %134
  %168 = load ptr, ptr %14, align 8
  %169 = getelementptr inbounds %struct.cli_sz_hash, ptr %168, i32 0, i32 0
  %170 = load ptr, ptr %169, align 8
  %171 = load ptr, ptr %14, align 8
  %172 = getelementptr inbounds %struct.cli_sz_hash, ptr %171, i32 0, i32 2
  %173 = load i32, ptr %172, align 8
  %174 = sub i32 %173, 1
  %175 = load i32, ptr %12, align 4
  %176 = mul i32 %174, %175
  %177 = zext i32 %176 to i64
  %178 = getelementptr inbounds i8, ptr %170, i64 %177
  %179 = load ptr, ptr %8, align 8
  %180 = load i32, ptr %12, align 4
  %181 = zext i32 %180 to i64
  call void @llvm.memcpy.p0.p0.i64(ptr align 1 %178, ptr align 1 %179, i64 %181, i1 false)
  %182 = load ptr, ptr %11, align 8
  %183 = load ptr, ptr %14, align 8
  %184 = getelementptr inbounds %struct.cli_sz_hash, ptr %183, i32 0, i32 1
  %185 = load ptr, ptr %184, align 8
  %186 = load ptr, ptr %14, align 8
  %187 = getelementptr inbounds %struct.cli_sz_hash, ptr %186, i32 0, i32 2
  %188 = load i32, ptr %187, align 8
  %189 = sub i32 %188, 1
  %190 = zext i32 %189 to i64
  %191 = getelementptr inbounds ptr, ptr %185, i64 %190
  store ptr %182, ptr %191, align 8
  store i32 0, ptr %6, align 4
  br label %192

192:                                              ; preds = %167, %153, %120, %77, %64, %48
  %193 = load i32, ptr %6, align 4
  ret i32 %193
}