; Function Attrs: nounwind uwtable
define i32 @hm_addhash_bin(ptr noundef %0, ptr nocapture noundef readonly %1, i32 noundef %2, i32 noundef %3, ptr noundef %4) local_unnamed_addr #0 {
  %6 = alloca %struct.cli_htu32_element, align 8
  %7 = zext i32 %2 to i64
  %8 = getelementptr inbounds [3 x i32], ptr @hashlen, i64 0, i64 %7
  %9 = load i32, ptr %8, align 4
  %.not = icmp eq i32 %3, 0
  br i1 %.not, label %35, label %10

10:                                               ; preds = %5
  %11 = getelementptr inbounds i8, ptr %0, i64 64
  %12 = getelementptr inbounds [3 x %struct.cli_htu32], ptr %11, i64 0, i64 %7
  %13 = getelementptr inbounds i8, ptr %12, i64 8
  %14 = load i64, ptr %13, align 8
  %.not62 = icmp eq i64 %14, 0
  br i1 %.not62, label %15, label %19

15:                                               ; preds = %10
  %16 = getelementptr inbounds i8, ptr %0, i64 408
  %17 = load ptr, ptr %16, align 8
  %18 = tail call i32 @cli_htu32_init(ptr noundef nonnull %12, i64 noundef 64, ptr noundef %17) #7
  %.not63 = icmp eq i32 %18, 0
  br i1 %.not63, label %19, label %78

19:                                               ; preds = %15, %10
  %20 = tail call ptr @cli_htu32_find(ptr noundef nonnull %12, i32 noundef %3) #7
  %.not64 = icmp eq ptr %20, null
  br i1 %.not64, label %21, label %32

21:                                               ; preds = %19
  %22 = getelementptr inbounds i8, ptr %0, i64 408
  %23 = load ptr, ptr %22, align 8
  %24 = tail call ptr @mpool_calloc(ptr noundef %23, i64 noundef 1, i64 noundef 24) #7
  %.not65 = icmp eq ptr %24, null
  br i1 %.not65, label %25, label %26

25:                                               ; preds = %21
  tail call void (ptr, ...) @cli_errmsg(ptr noundef nonnull @.str.4) #7
  br label %78

26:                                               ; preds = %21
  store i32 %3, ptr %6, align 8
  %27 = getelementptr inbounds i8, ptr %6, i64 8
  store ptr %24, ptr %27, align 8
  %28 = load ptr, ptr %22, align 8
  %29 = call i32 @cli_htu32_insert(ptr noundef nonnull %12, ptr noundef nonnull %6, ptr noundef %28) #7
  %.not66 = icmp eq i32 %29, 0
  br i1 %.not66, label %38, label %30

30:                                               ; preds = %26
  call void (ptr, ...) @cli_errmsg(ptr noundef nonnull @.str.5) #7
  %31 = load ptr, ptr %22, align 8
  call void @mpool_free(ptr noundef %31, ptr noundef nonnull %24) #7
  br label %78

32:                                               ; preds = %19
  %33 = getelementptr inbounds i8, ptr %20, i64 8
  %34 = load ptr, ptr %33, align 8
  br label %38

35:                                               ; preds = %5
  %36 = getelementptr inbounds i8, ptr %0, i64 160
  %37 = getelementptr inbounds [3 x %struct.cli_sz_hash], ptr %36, i64 0, i64 %7
  br label %38

38:                                               ; preds = %32, %26, %35
  %.056 = phi ptr [ %34, %32 ], [ %24, %26 ], [ %37, %35 ]
  %39 = getelementptr inbounds i8, ptr %.056, i64 16
  %40 = load i32, ptr %39, align 8
  %41 = add i32 %40, 1
  store i32 %41, ptr %39, align 8
  %42 = getelementptr inbounds i8, ptr %0, i64 408
  %43 = load ptr, ptr %42, align 8
  %44 = load ptr, ptr %.056, align 8
  %45 = mul i32 %41, %9
  %46 = zext i32 %45 to i64
  %47 = call ptr @mpool_realloc2(ptr noundef %43, ptr noundef %44, i64 noundef %46) #7
  store ptr %47, ptr %.056, align 8
  %.not67 = icmp eq ptr %47, null
  br i1 %.not67, label %48, label %53

48:                                               ; preds = %38
  %49 = load i32, ptr %39, align 8
  call void (ptr, ...) @cli_errmsg(ptr noundef nonnull @.str.6, i32 noundef %49) #7
  store i32 0, ptr %39, align 8
  %50 = load ptr, ptr %42, align 8
  %51 = getelementptr inbounds i8, ptr %.056, i64 8
  %52 = load ptr, ptr %51, align 8
  call void @mpool_free(ptr noundef %50, ptr noundef %52) #7
  store ptr null, ptr %51, align 8
  br label %78

53:                                               ; preds = %38
  %54 = load ptr, ptr %42, align 8
  %55 = getelementptr inbounds i8, ptr %.056, i64 8
  %56 = load ptr, ptr %55, align 8
  %57 = load i32, ptr %39, align 8
  %58 = zext i32 %57 to i64
  %59 = shl nuw nsw i64 %58, 3
  %60 = call ptr @mpool_realloc2(ptr noundef %54, ptr noundef %56, i64 noundef %59) #7
  store ptr %60, ptr %55, align 8
  %.not68 = icmp eq ptr %60, null
  br i1 %.not68, label %61, label %65

61:                                               ; preds = %53
  %62 = load i32, ptr %39, align 8
  call void (ptr, ...) @cli_errmsg(ptr noundef nonnull @.str.7, i32 noundef %62) #7
  store i32 0, ptr %39, align 8
  %63 = load ptr, ptr %42, align 8
  %64 = load ptr, ptr %.056, align 8
  call void @mpool_free(ptr noundef %63, ptr noundef %64) #7
  store ptr null, ptr %.056, align 8
  br label %78

65:                                               ; preds = %53
  %66 = load ptr, ptr %.056, align 8
  %67 = load i32, ptr %39, align 8
  %68 = add i32 %67, -1
  %69 = mul i32 %68, %9
  %70 = zext i32 %69 to i64
  %71 = getelementptr inbounds i8, ptr %66, i64 %70
  %72 = zext i32 %9 to i64
  call void @llvm.memcpy.p0.p0.i64(ptr align 1 %71, ptr align 1 %1, i64 %72, i1 false)
  %73 = load ptr, ptr %55, align 8
  %74 = load i32, ptr %39, align 8
  %75 = add i32 %74, -1
  %76 = zext i32 %75 to i64
  %77 = getelementptr inbounds ptr, ptr %73, i64 %76
  store ptr %4, ptr %77, align 8
  br label %78

78:                                               ; preds = %15, %65, %61, %48, %30, %25
  %.0 = phi i32 [ 0, %65 ], [ 20, %61 ], [ 20, %48 ], [ %29, %30 ], [ 20, %25 ], [ %18, %15 ]
  ret i32 %.0
}